target datalayout = "e-m:e-p270:32:32-p271:32:32-p272:64:64-i64:64-i128:128-f80:128-n8:16:32:64-S128"
target triple = "x86_64-pc-linux-gnu"

%struct._h223_mux_element = type { ptr, i16, i16, ptr }

@h223_me = hidden global ptr null, align 8

; Function Attrs: null_pointer_is_valid sspstrong uwtable
define internal i32 @dissect_h245_T_logicalChannelNum(ptr noundef %0, i32 noundef %1, ptr noundef %2, ptr noundef %3, i32 noundef %4) #1 {
  %6 = alloca ptr, align 8
  %7 = alloca i32, align 4
  %8 = alloca ptr, align 8
  %9 = alloca ptr, align 8
  %10 = alloca i32, align 4
  %11 = alloca i32, align 4
  store ptr %0, ptr %6, align 8
  store i32 %1, ptr %7, align 4
  store ptr %2, ptr %8, align 8
  store ptr %3, ptr %9, align 8
  store i32 %4, ptr %10, align 4
  call void @llvm.lifetime.start.p0(i64 4, ptr %11) #12
  %12 = load ptr, ptr %6, align 8
  %13 = load i32, ptr %7, align 4
  %14 = load ptr, ptr %8, align 8
  %15 = load ptr, ptr %9, align 8
  %16 = load i32, ptr %10, align 4
  %17 = call i32 @dissect_per_constrained_integer(ptr noundef %12, i32 noundef %13, ptr noundef %14, ptr noundef %15, i32 noundef %16, i32 noundef 0, i32 noundef 65535, ptr noundef %11, i1 noundef zeroext false)
  store i32 %17, ptr %7, align 4
  %18 = load ptr, ptr @h223_me, align 8
  %19 = getelementptr inbounds nuw %struct._h223_mux_element, ptr %18, i32 0, i32 0
  store ptr null, ptr %19, align 8
  %20 = load i32, ptr %11, align 4
  %21 = and i32 %20, 65535
  %22 = trunc i32 %21 to i16
  %23 = load ptr, ptr @h223_me, align 8
  %24 = getelementptr inbounds nuw %struct._h223_mux_element, ptr %23, i32 0, i32 1
  store i16 %22, ptr %24, align 8
  %25 = load i32, ptr %7, align 4
  call void @llvm.lifetime.end.p0(i64 4, ptr %11) #12
  ret i32 %25
}