; Function Attrs: null_pointer_is_valid sspstrong uwtable
define internal i32 @dissect_h245_T_logicalChannelNum(ptr noundef %0, i32 noundef %1, ptr noundef %2, ptr noundef %3, i32 noundef %4) #1 {
  %6 = alloca i32, align 4
  call void @llvm.lifetime.start.p0(i64 4, ptr nonnull %6) #13
  %7 = call i32 @dissect_per_constrained_integer(ptr noundef %0, i32 noundef %1, ptr noundef %2, ptr noundef %3, i32 noundef %4, i32 noundef 0, i32 noundef 65535, ptr noundef nonnull %6, i1 noundef zeroext false)
  %8 = load ptr, ptr @h223_me, align 8
  store ptr null, ptr %8, align 8
  %9 = load i32, ptr %6, align 4
  %10 = trunc i32 %9 to i16
  %11 = load ptr, ptr @h223_me, align 8
  %12 = getelementptr inbounds nuw i8, ptr %11, i64 8
  store i16 %10, ptr %12, align 8
  call void @llvm.lifetime.end.p0(i64 4, ptr nonnull %6) #13
  ret i32 %7
}